target datalayout = "e-m:e-p270:32:32-p271:32:32-p272:64:64-i64:64-i128:128-f80:128-n8:16:32:64-S128"
target triple = "x86_64-pc-linux-gnu"

%struct.my_error_mgr = type { %struct.jpeg_error_mgr, [1 x %struct.__jmp_buf_tag] }
%struct.jpeg_error_mgr = type { ptr, ptr, ptr, ptr, ptr, i32, %union.anon, i32, i64, ptr, i32, ptr, i32, i32 }
%union.anon = type { [8 x i32], [48 x i8] }
%struct.__jmp_buf_tag = type { [8 x i64], i32, %struct.__sigset_t }
%struct.__sigset_t = type { [16 x i64] }
%struct.jpeg_common_struct = type { ptr, ptr, ptr, ptr, i32, i32 }

@stderr = external global ptr, align 8
@.str.1 = private unnamed_addr constant [16 x i8] c"libjpeg error: \00", align 1
@.str.2 = private unnamed_addr constant [56 x i8] c"`jpegtran -copy all` MAY be able to process this file.\0A\00", align 1

; Function Attrs: nounwind uwtable
define internal void @my_error_exit(ptr noundef %0) #0 {
  %2 = alloca ptr, align 8
  %3 = alloca ptr, align 8
  %4 = alloca i32, align 4
  store ptr %0, ptr %2, align 8, !tbaa !60
  call void @llvm.lifetime.start.p0(i64 8, ptr %3) #10
  %5 = load ptr, ptr %2, align 8, !tbaa !60
  %6 = getelementptr inbounds nuw %struct.jpeg_common_struct, ptr %5, i32 0, i32 0
  %7 = load ptr, ptr %6, align 8, !tbaa !62
  store ptr %7, ptr %3, align 8, !tbaa !64
  call void @llvm.lifetime.start.p0(i64 4, ptr %4) #10
  %8 = load ptr, ptr %3, align 8, !tbaa !64
  %9 = getelementptr inbounds nuw %struct.my_error_mgr, ptr %8, i32 0, i32 0
  %10 = getelementptr inbounds nuw %struct.jpeg_error_mgr, ptr %9, i32 0, i32 5
  %11 = load i32, ptr %10, align 8, !tbaa !66
  store i32 %11, ptr %4, align 4, !tbaa !13
  %12 = load ptr, ptr @stderr, align 8, !tbaa !54
  %13 = call i32 (ptr, ptr, ...) @fprintf(ptr noundef %12, ptr noundef @.str.1) #10
  %14 = load ptr, ptr %2, align 8, !tbaa !60
  %15 = getelementptr inbounds nuw %struct.jpeg_common_struct, ptr %14, i32 0, i32 0
  %16 = load ptr, ptr %15, align 8, !tbaa !62
  %17 = getelementptr inbounds nuw %struct.jpeg_error_mgr, ptr %16, i32 0, i32 2
  %18 = load ptr, ptr %17, align 8, !tbaa !67
  %19 = load ptr, ptr %2, align 8, !tbaa !60
  call void %18(ptr noundef %19)
  %20 = load i32, ptr %4, align 4, !tbaa !13
  %21 = icmp eq i32 %20, 44
  br i1 %21, label %25, label %22

22:                                               ; preds = %1
  %23 = load i32, ptr %4, align 4, !tbaa !13
  %24 = icmp eq i32 %23, 37
  br i1 %24, label %25, label %28

25:                                               ; preds = %22, %1
  %26 = load ptr, ptr @stderr, align 8, !tbaa !54
  %27 = call i32 (ptr, ptr, ...) @fprintf(ptr noundef %26, ptr noundef @.str.2) #10
  br label %28

28:                                               ; preds = %25, %22
  %29 = load ptr, ptr %3, align 8, !tbaa !64
  %30 = getelementptr inbounds nuw %struct.my_error_mgr, ptr %29, i32 0, i32 1
  %31 = getelementptr inbounds [1 x %struct.__jmp_buf_tag], ptr %30, i64 0, i64 0
  call void @longjmp(ptr noundef %31, i32 noundef 1) #13
  unreachable
}