; Function Attrs: cold noreturn nounwind uwtable
define internal void @my_error_exit(ptr noundef %0) #4 {
  %2 = load ptr, ptr %0, align 8, !tbaa !61
  %3 = getelementptr inbounds nuw i8, ptr %2, i64 40
  %4 = load i32, ptr %3, align 8, !tbaa !63
  %5 = load ptr, ptr @stderr, align 8, !tbaa !55
  %6 = tail call i64 @fwrite(ptr nonnull @.str.1, i64 15, i64 1, ptr %5) #21
  %7 = load ptr, ptr %0, align 8, !tbaa !61
  %8 = getelementptr inbounds nuw i8, ptr %7, i64 16
  %9 = load ptr, ptr %8, align 8, !tbaa !64
  tail call void %9(ptr noundef nonnull %0) #18
  switch i32 %4, label %13 [
    i32 44, label %10
    i32 37, label %10
  ]

10:                                               ; preds = %1, %1
  %11 = load ptr, ptr @stderr, align 8, !tbaa !55
  %12 = tail call i64 @fwrite(ptr nonnull @.str.2, i64 55, i64 1, ptr %11) #21
  br label %13

13:                                               ; preds = %1, %10
  %14 = getelementptr inbounds nuw i8, ptr %2, i64 168
  tail call void @longjmp(ptr noundef nonnull %14, i32 noundef 1) #22
  unreachable
}